; Function Attrs: mustprogress nounwind uwtable
define internal void @_ZN2cv12cpu_baseline12_GLOBAL__N_111MorphFilterINS1_5MinOpItEENS1_10MorphNoVecEED0Ev(ptr noundef nonnull align 8 dereferenceable(73) %0) unnamed_addr #5 align 2 personality ptr @__gxx_personality_v0 {
  store ptr getelementptr inbounds inrange(-16, 32) (i8, ptr @_ZTVN2cv12cpu_baseline12_GLOBAL__N_111MorphFilterINS1_5MinOpItEENS1_10MorphNoVecEEE, i64 16), ptr %0, align 8
  %2 = getelementptr inbounds i8, ptr %0, i64 48
  %3 = load ptr, ptr %2, align 8
  %.not.i.i.i.i = icmp eq ptr %3, null
  br i1 %.not.i.i.i.i, label %_ZNSt6vectorIPhSaIS0_EED2Ev.exit.i, label %4

4:                                                ; preds = %1
  tail call void @_ZdlPv(ptr noundef nonnull %3) #27
  br label %_ZNSt6vectorIPhSaIS0_EED2Ev.exit.i

_ZNSt6vectorIPhSaIS0_EED2Ev.exit.i:               ; preds = %4, %1
  %5 = getelementptr inbounds i8, ptr %0, i64 24
  %6 = load ptr, ptr %5, align 8
  %.not.i.i.i1.i = icmp eq ptr %6, null
  br i1 %.not.i.i.i1.i, label %_ZN2cv12cpu_baseline12_GLOBAL__N_111MorphFilterINS1_5MinOpItEENS1_10MorphNoVecEED2Ev.exit, label %7

7:                                                ; preds = %_ZNSt6vectorIPhSaIS0_EED2Ev.exit.i
  tail call void @_ZdlPv(ptr noundef nonnull %6) #27
  br label %_ZN2cv12cpu_baseline12_GLOBAL__N_111MorphFilterINS1_5MinOpItEENS1_10MorphNoVecEED2Ev.exit

_ZN2cv12cpu_baseline12_GLOBAL__N_111MorphFilterINS1_5MinOpItEENS1_10MorphNoVecEED2Ev.exit: ; preds = %_ZNSt6vectorIPhSaIS0_EED2Ev.exit.i, %7
  tail call void @_ZN2cv10BaseFilterD2Ev(ptr noundef nonnull align 8 dereferenceable(24) %0) #24
  tail call void @_ZdlPv(ptr noundef nonnull %0) #27
  ret void
}